target datalayout = "e-m:e-p270:32:32-p271:32:32-p272:64:64-i64:64-i128:128-f80:128-n8:16:32:64-S128"
target triple = "x86_64-pc-linux-gnu"

%struct.AVFormatContext = type { ptr, ptr, ptr, ptr, ptr, i32, i32, ptr, i32, ptr, i32, ptr, ptr, i64, i64, i64, i32, i32, i32, i64, i64, ptr, i32, i32, ptr, i32, i32, i32, i32, ptr, i64, i32, i32, %struct.AVIOInterruptCB, i32, i32, i32, i32, i64, i32, i32, i32, i32, i32, i32, i32, i32, i32, i32, i32, i32, i64, i32, i32, i32, i32, i32, ptr, ptr, ptr, ptr, i32, ptr, ptr, ptr, ptr, i32, ptr, ptr, i64, ptr, ptr, ptr, i64 }
%struct.AVIOInterruptCB = type { ptr, ptr }
%struct.ogg = type { ptr, i32, i32, i32, i64, ptr }
%struct.ogg_stream = type { ptr, i32, i32, i32, i32, i32, i32, i32, i64, i64, i64, i64, i64, i64, i32, ptr, i32, i32, i32, [255 x i8], i32, i32, i32, i32, i32, i32, i32, i32, ptr, i64, ptr }
%struct.TheoraParams = type { i32, i32, i32 }

; Function Attrs: nounwind uwtable
define internal i64 @theora_gptopts(ptr noundef %0, i32 noundef %1, i64 noundef %2, ptr noundef %3) #0 {
  %5 = alloca i64, align 8
  %6 = alloca ptr, align 8
  %7 = alloca i32, align 4
  %8 = alloca i64, align 8
  %9 = alloca ptr, align 8
  %10 = alloca ptr, align 8
  %11 = alloca ptr, align 8
  %12 = alloca ptr, align 8
  %13 = alloca i64, align 8
  %14 = alloca i64, align 8
  %15 = alloca i32, align 4
  store ptr %0, ptr %6, align 8, !tbaa !4
  store i32 %1, ptr %7, align 4, !tbaa !9
  store i64 %2, ptr %8, align 8, !tbaa !89
  store ptr %3, ptr %9, align 8, !tbaa !94
  call void @llvm.lifetime.start.p0(i64 8, ptr %10) #9
  %16 = load ptr, ptr %6, align 8, !tbaa !4
  %17 = getelementptr inbounds nuw %struct.AVFormatContext, ptr %16, i32 0, i32 3
  %18 = load ptr, ptr %17, align 8, !tbaa !11
  store ptr %18, ptr %10, align 8, !tbaa !27
  call void @llvm.lifetime.start.p0(i64 8, ptr %11) #9
  %19 = load ptr, ptr %10, align 8, !tbaa !27
  %20 = getelementptr inbounds nuw %struct.ogg, ptr %19, i32 0, i32 0
  %21 = load ptr, ptr %20, align 8, !tbaa !29
  %22 = load i32, ptr %7, align 4, !tbaa !9
  %23 = sext i32 %22 to i64
  %24 = getelementptr inbounds %struct.ogg_stream, ptr %21, i64 %23
  store ptr %24, ptr %11, align 8, !tbaa !33
  call void @llvm.lifetime.start.p0(i64 8, ptr %12) #9
  %25 = load ptr, ptr %11, align 8, !tbaa !33
  %26 = getelementptr inbounds nuw %struct.ogg_stream, ptr %25, i32 0, i32 30
  %27 = load ptr, ptr %26, align 8, !tbaa !37
  store ptr %27, ptr %12, align 8, !tbaa !40
  call void @llvm.lifetime.start.p0(i64 8, ptr %13) #9
  call void @llvm.lifetime.start.p0(i64 8, ptr %14) #9
  %28 = load ptr, ptr %12, align 8, !tbaa !40
  %29 = icmp ne ptr %28, null
  br i1 %29, label %31, label %30

30:                                               ; preds = %4
  store i64 -9223372036854775808, ptr %5, align 8
  store i32 1, ptr %15, align 4
  br label %71

31:                                               ; preds = %4
  %32 = load i64, ptr %8, align 8, !tbaa !89
  %33 = load ptr, ptr %12, align 8, !tbaa !40
  %34 = getelementptr inbounds nuw %struct.TheoraParams, ptr %33, i32 0, i32 0
  %35 = load i32, ptr %34, align 4, !tbaa !64
  %36 = zext i32 %35 to i64
  %37 = lshr i64 %32, %36
  store i64 %37, ptr %13, align 8, !tbaa !89
  %38 = load i64, ptr %8, align 8, !tbaa !89
  %39 = load ptr, ptr %12, align 8, !tbaa !40
  %40 = getelementptr inbounds nuw %struct.TheoraParams, ptr %39, i32 0, i32 1
  %41 = load i32, ptr %40, align 4, !tbaa !65
  %42 = sext i32 %41 to i64
  %43 = and i64 %38, %42
  store i64 %43, ptr %14, align 8, !tbaa !89
  %44 = load ptr, ptr %12, align 8, !tbaa !40
  %45 = getelementptr inbounds nuw %struct.TheoraParams, ptr %44, i32 0, i32 2
  %46 = load i32, ptr %45, align 4, !tbaa !56
  %47 = icmp ult i32 %46, 197121
  br i1 %47, label %48, label %51

48:                                               ; preds = %31
  %49 = load i64, ptr %13, align 8, !tbaa !89
  %50 = add i64 %49, 1
  store i64 %50, ptr %13, align 8, !tbaa !89
  br label %51

51:                                               ; preds = %48, %31
  %52 = load i64, ptr %14, align 8, !tbaa !89
  %53 = icmp ne i64 %52, 0
  br i1 %53, label %59, label %54

54:                                               ; preds = %51
  %55 = load ptr, ptr %11, align 8, !tbaa !33
  %56 = getelementptr inbounds nuw %struct.ogg_stream, ptr %55, i32 0, i32 5
  %57 = load i32, ptr %56, align 8, !tbaa !96
  %58 = or i32 %57, 1
  store i32 %58, ptr %56, align 8, !tbaa !96
  br label %59

59:                                               ; preds = %54, %51
  %60 = load ptr, ptr %9, align 8, !tbaa !94
  %61 = icmp ne ptr %60, null
  br i1 %61, label %62, label %67

62:                                               ; preds = %59
  %63 = load i64, ptr %13, align 8, !tbaa !89
  %64 = load i64, ptr %14, align 8, !tbaa !89
  %65 = add i64 %63, %64
  %66 = load ptr, ptr %9, align 8, !tbaa !94
  store i64 %65, ptr %66, align 8, !tbaa !89
  br label %67

67:                                               ; preds = %62, %59
  %68 = load i64, ptr %13, align 8, !tbaa !89
  %69 = load i64, ptr %14, align 8, !tbaa !89
  %70 = add i64 %68, %69
  store i64 %70, ptr %5, align 8
  store i32 1, ptr %15, align 4
  br label %71

71:                                               ; preds = %67, %30
  call void @llvm.lifetime.end.p0(i64 8, ptr %14) #9
  call void @llvm.lifetime.end.p0(i64 8, ptr %13) #9
  call void @llvm.lifetime.end.p0(i64 8, ptr %12) #9
  call void @llvm.lifetime.end.p0(i64 8, ptr %11) #9
  call void @llvm.lifetime.end.p0(i64 8, ptr %10) #9
  %72 = load i64, ptr %5, align 8
  ret i64 %72
}