; Function Attrs: mustprogress nofree norecurse nosync nounwind willreturn memory(readwrite, inaccessiblemem: none) uwtable
define internal i64 @theora_gptopts(ptr noundef readonly captures(none) %0, i32 noundef %1, i64 noundef %2, ptr noundef writeonly captures(address_is_null) %3) #2 {
  %5 = getelementptr inbounds nuw i8, ptr %0, i64 24
  %6 = load ptr, ptr %5, align 8, !tbaa !4
  %7 = load ptr, ptr %6, align 8, !tbaa !24
  %8 = sext i32 %1 to i64
  %9 = getelementptr inbounds %struct.ogg_stream, ptr %7, i64 %8
  %10 = getelementptr inbounds nuw i8, ptr %9, i64 424
  %11 = load ptr, ptr %10, align 8, !tbaa !47
  %.not = icmp eq ptr %11, null
  br i1 %.not, label %._crit_edge, label %12

12:                                               ; preds = %4
  %13 = load i32, ptr %11, align 4, !tbaa !54
  %14 = zext nneg i32 %13 to i64
  %15 = lshr i64 %2, %14
  %16 = getelementptr inbounds nuw i8, ptr %11, i64 4
  %17 = load i32, ptr %16, align 4, !tbaa !55
  %18 = sext i32 %17 to i64
  %19 = and i64 %2, %18
  %20 = getelementptr inbounds nuw i8, ptr %11, i64 8
  %21 = load i32, ptr %20, align 4, !tbaa !48
  %22 = icmp ult i32 %21, 197121
  %23 = zext i1 %22 to i64
  %spec.select = add i64 %15, %23
  %.not22 = icmp eq i64 %19, 0
  br i1 %.not22, label %24, label %28

24:                                               ; preds = %12
  %25 = getelementptr inbounds nuw i8, ptr %9, i64 24
  %26 = load i32, ptr %25, align 8, !tbaa !79
  %27 = or i32 %26, 1
  store i32 %27, ptr %25, align 8, !tbaa !79
  br label %28

28:                                               ; preds = %24, %12
  %.not23 = icmp eq ptr %3, null
  %.pre = add i64 %spec.select, %19
  br i1 %.not23, label %._crit_edge, label %29

29:                                               ; preds = %28
  store i64 %.pre, ptr %3, align 8, !tbaa !84
  br label %._crit_edge

._crit_edge:                                      ; preds = %28, %29, %4
  %.0 = phi i64 [ -9223372036854775808, %4 ], [ %.pre, %29 ], [ %.pre, %28 ]
  ret i64 %.0
}